; ModuleID = '62/1988.cpp'
source_filename = "62/1988.cpp"
target datalayout = "e-m:e-p270:32:32-p271:32:32-p272:64:64-i64:64-f80:128-n8:16:32:64-S128"
target triple = "x86_64-pc-linux-gnu"

%"class.std::ios_base::Init" = type { i8 }
%"class.std::basic_istream" = type { i32 (...)**, i64, %"class.std::basic_ios" }
%"class.std::basic_ios" = type { %"class.std::ios_base", %"class.std::basic_ostream"*, i8, i8, %"class.std::basic_streambuf"*, %"class.std::ctype"*, %"class.std::num_put"*, %"class.std::num_get"* }
%"class.std::ios_base" = type { i32 (...)**, i64, i64, i32, i32, i32, %"struct.std::ios_base::_Callback_list"*, %"struct.std::ios_base::_Words", [8 x %"struct.std::ios_base::_Words"], i32, %"struct.std::ios_base::_Words"*, %"class.std::locale" }
%"struct.std::ios_base::_Callback_list" = type { %"struct.std::ios_base::_Callback_list"*, void (i32, %"class.std::ios_base"*, i32)*, i32, i32 }
%"struct.std::ios_base::_Words" = type { i8*, i64 }
%"class.std::locale" = type { %"class.std::locale::_Impl"* }
%"class.std::locale::_Impl" = type { i32, %"class.std::locale::facet"**, i64, %"class.std::locale::facet"**, i8** }
%"class.std::locale::facet" = type <{ i32 (...)**, i32, [4 x i8] }>
%"class.std::basic_ostream" = type { i32 (...)**, %"class.std::basic_ios" }
%"class.std::basic_streambuf" = type { i32 (...)**, i8*, i8*, i8*, i8*, i8*, i8*, %"class.std::locale" }
%"class.std::ctype" = type <{ %"class.std::locale::facet.base", [4 x i8], %struct.__locale_struct*, i8, [7 x i8], i32*, i32*, i16*, i8, [256 x i8], [256 x i8], i8, [6 x i8] }>
%"class.std::locale::facet.base" = type <{ i32 (...)**, i32 }>
%struct.__locale_struct = type { [13 x %struct.__locale_data*], i16*, i32*, i32*, [13 x i8*] }
%struct.__locale_data = type opaque
%"class.std::num_put" = type { %"class.std::locale::facet.base", [4 x i8] }
%"class.std::num_get" = type { %"class.std::locale::facet.base", [4 x i8] }

@_ZStL8__ioinit = internal global %"class.std::ios_base::Init" zeroinitializer, align 1
@__dso_handle = external hidden global i8
@_ZSt3cin = external dso_local global %"class.std::basic_istream", align 8
@_ZSt4cout = external dso_local global %"class.std::basic_ostream", align 8
@llvm.global_ctors = appending global [1 x { i32, void ()*, i8* }] [{ i32, void ()*, i8* } { i32 65535, void ()* @_GLOBAL__sub_I_1988.cpp, i8* null }]

; Function Attrs: noinline uwtable
define internal void @__cxx_global_var_init() #0 section ".text.startup" {
  call void @_ZNSt8ios_base4InitC1Ev(%"class.std::ios_base::Init"* @_ZStL8__ioinit)
  %1 = call i32 @__cxa_atexit(void (i8*)* bitcast (void (%"class.std::ios_base::Init"*)* @_ZNSt8ios_base4InitD1Ev to void (i8*)*), i8* getelementptr inbounds (%"class.std::ios_base::Init", %"class.std::ios_base::Init"* @_ZStL8__ioinit, i32 0, i32 0), i8* @__dso_handle) #3
  ret void
}

declare dso_local void @_ZNSt8ios_base4InitC1Ev(%"class.std::ios_base::Init"*) unnamed_addr #1

; Function Attrs: nounwind
declare dso_local void @_ZNSt8ios_base4InitD1Ev(%"class.std::ios_base::Init"*) unnamed_addr #2

; Function Attrs: nounwind
declare dso_local i32 @__cxa_atexit(void (i8*)*, i8*, i8*) #3

; Function Attrs: noinline norecurse uwtable
define dso_local i32 @main() #4 {
  %1 = alloca i32, align 4
  %2 = alloca i8*, align 8
  %3 = alloca [101 x i8], align 16
  store i32 0, i32* %1, align 4
  %4 = getelementptr inbounds [101 x i8], [101 x i8]* %3, i64 0, i64 0
  %5 = call dereferenceable(280) %"class.std::basic_istream"* @_ZNSi7getlineEPcl(%"class.std::basic_istream"* @_ZSt3cin, i8* %4, i64 100)
  %6 = getelementptr inbounds [101 x i8], [101 x i8]* %3, i64 0, i64 0
  store i8* %6, i8** %2, align 8
  br label %7

7:                                                ; preds = %29, %0
  %8 = load i8*, i8** %2, align 8
  %9 = load i8, i8* %8, align 1
  %10 = sext i8 %9 to i32
  %11 = icmp ne i32 %10, 0
  br i1 %11, label %12, label %32

12:                                               ; preds = %7
  %13 = load i8*, i8** %2, align 8
  %14 = load i8, i8* %13, align 1
  %15 = sext i8 %14 to i32
  %16 = icmp eq i32 %15, 32
  br i1 %16, label %17, label %28

17:                                               ; preds = %12
  %18 = load i8*, i8** %2, align 8
  %19 = getelementptr inbounds i8, i8* %18, i64 1
  %20 = load i8, i8* %19, align 1
  %21 = sext i8 %20 to i32
  %22 = icmp eq i32 %21, 32
  br i1 %22, label %23, label %27

23:                                               ; preds = %17
  %24 = load i8*, i8** %2, align 8
  call void @_Z4workPc(i8* %24)
  %25 = load i8*, i8** %2, align 8
  %26 = getelementptr inbounds i8, i8* %25, i32 -1
  store i8* %26, i8** %2, align 8
  br label %27

27:                                               ; preds = %23, %17
  br label %28

28:                                               ; preds = %27, %12
  br label %29

29:                                               ; preds = %28
  %30 = load i8*, i8** %2, align 8
  %31 = getelementptr inbounds i8, i8* %30, i32 1
  store i8* %31, i8** %2, align 8
  br label %7

32:                                               ; preds = %7
  %33 = getelementptr inbounds [101 x i8], [101 x i8]* %3, i64 0, i64 0
  store i8* %33, i8** %2, align 8
  %34 = load i8*, i8** %2, align 8
  %35 = call dereferenceable(272) %"class.std::basic_ostream"* @_ZStlsISt11char_traitsIcEERSt13basic_ostreamIcT_ES5_PKc(%"class.std::basic_ostream"* dereferenceable(272) @_ZSt4cout, i8* %34)
  ret i32 0
}

declare dso_local dereferenceable(280) %"class.std::basic_istream"* @_ZNSi7getlineEPcl(%"class.std::basic_istream"*, i8*, i64) #1

; Function Attrs: noinline nounwind uwtable
define dso_local void @_Z4workPc(i8* %0) #5 {
  %2 = alloca i8*, align 8
  store i8* %0, i8** %2, align 8
  br label %3

3:                                                ; preds = %14, %1
  %4 = load i8*, i8** %2, align 8
  %5 = getelementptr inbounds i8, i8* %4, i64 1
  %6 = load i8, i8* %5, align 1
  %7 = load i8*, i8** %2, align 8
  store i8 %6, i8* %7, align 1
  %8 = load i8*, i8** %2, align 8
  %9 = load i8, i8* %8, align 1
  %10 = sext i8 %9 to i32
  %11 = icmp eq i32 %10, 0
  br i1 %11, label %12, label %13

12:                                               ; preds = %3
  br label %17

13:                                               ; preds = %3
  br label %14

14:                                               ; preds = %13
  %15 = load i8*, i8** %2, align 8
  %16 = getelementptr inbounds i8, i8* %15, i32 1
  store i8* %16, i8** %2, align 8
  br label %3

17:                                               ; preds = %12
  ret void
}

declare dso_local dereferenceable(272) %"class.std::basic_ostream"* @_ZStlsISt11char_traitsIcEERSt13basic_ostreamIcT_ES5_PKc(%"class.std::basic_ostream"* dereferenceable(272), i8*) #1

; Function Attrs: noinline uwtable
define internal void @_GLOBAL__sub_I_1988.cpp() #0 section ".text.startup" {
  call void @__cxx_global_var_init()
  ret void
}


!llvm.module.flags = !{!0}
!llvm.ident = !{!1}

!0 = !{i32 1, !"wchar_size", i32 4}
!1 = !{!"clang version 10.0.0-4ubuntu1 "}
